target datalayout = "e-m:e-p270:32:32-p271:32:32-p272:64:64-i64:64-i128:128-f80:128-n8:16:32:64-S128"
target triple = "x86_64-pc-linux-gnu"

%struct.FxuListLit = type { ptr, ptr, i32 }
%struct.FxuVar = type { i32, i32, ptr, ptr, %struct.FxuListLit, ptr, ptr, ptr }

; Function Attrs: nounwind uwtable
define void @Fxu_PairFreeStorage(ptr noundef %0) #0 {
  %2 = alloca ptr, align 8
  store ptr %0, ptr %2, align 8, !tbaa !37
  %3 = load ptr, ptr %2, align 8, !tbaa !37
  %4 = getelementptr inbounds nuw %struct.FxuVar, ptr %3, i32 0, i32 3
  %5 = load ptr, ptr %4, align 8, !tbaa !41
  %6 = icmp ne ptr %5, null
  br i1 %6, label %7, label %38

7:                                                ; preds = %1
  %8 = load ptr, ptr %2, align 8, !tbaa !37
  %9 = getelementptr inbounds nuw %struct.FxuVar, ptr %8, i32 0, i32 3
  %10 = load ptr, ptr %9, align 8, !tbaa !41
  %11 = getelementptr inbounds ptr, ptr %10, i64 0
  %12 = load ptr, ptr %11, align 8, !tbaa !42
  %13 = icmp ne ptr %12, null
  br i1 %13, label %14, label %24

14:                                               ; preds = %7
  %15 = load ptr, ptr %2, align 8, !tbaa !37
  %16 = getelementptr inbounds nuw %struct.FxuVar, ptr %15, i32 0, i32 3
  %17 = load ptr, ptr %16, align 8, !tbaa !41
  %18 = getelementptr inbounds ptr, ptr %17, i64 0
  %19 = load ptr, ptr %18, align 8, !tbaa !42
  call void @free(ptr noundef %19) #6
  %20 = load ptr, ptr %2, align 8, !tbaa !37
  %21 = getelementptr inbounds nuw %struct.FxuVar, ptr %20, i32 0, i32 3
  %22 = load ptr, ptr %21, align 8, !tbaa !41
  %23 = getelementptr inbounds ptr, ptr %22, i64 0
  store ptr null, ptr %23, align 8, !tbaa !42
  br label %25

24:                                               ; preds = %7
  br label %25

25:                                               ; preds = %24, %14
  %26 = load ptr, ptr %2, align 8, !tbaa !37
  %27 = getelementptr inbounds nuw %struct.FxuVar, ptr %26, i32 0, i32 3
  %28 = load ptr, ptr %27, align 8, !tbaa !41
  %29 = icmp ne ptr %28, null
  br i1 %29, label %30, label %36

30:                                               ; preds = %25
  %31 = load ptr, ptr %2, align 8, !tbaa !37
  %32 = getelementptr inbounds nuw %struct.FxuVar, ptr %31, i32 0, i32 3
  %33 = load ptr, ptr %32, align 8, !tbaa !41
  call void @free(ptr noundef %33) #6
  %34 = load ptr, ptr %2, align 8, !tbaa !37
  %35 = getelementptr inbounds nuw %struct.FxuVar, ptr %34, i32 0, i32 3
  store ptr null, ptr %35, align 8, !tbaa !41
  br label %37

36:                                               ; preds = %25
  br label %37

37:                                               ; preds = %36, %30
  br label %38

38:                                               ; preds = %37, %1
  ret void
}