; Function Attrs: mustprogress nounwind willreturn uwtable
define void @Fxu_PairFreeStorage(ptr noundef captures(none) %0) local_unnamed_addr #8 {
  %2 = getelementptr inbounds nuw i8, ptr %0, i64 16
  %3 = load ptr, ptr %2, align 8, !tbaa !33
  %.not = icmp eq ptr %3, null
  br i1 %.not, label %10, label %4

4:                                                ; preds = %1
  %5 = load ptr, ptr %3, align 8, !tbaa !34
  %.not9 = icmp eq ptr %5, null
  br i1 %.not9, label %8, label %6

6:                                                ; preds = %4
  tail call void @free(ptr noundef nonnull %5) #15
  %7 = load ptr, ptr %2, align 8, !tbaa !33
  store ptr null, ptr %7, align 8, !tbaa !34
  br label %8

8:                                                ; preds = %6, %4
  %9 = phi ptr [ %3, %4 ], [ %7, %6 ]
  tail call void @free(ptr noundef nonnull %9) #15
  store ptr null, ptr %2, align 8, !tbaa !33
  br label %10

10:                                               ; preds = %8, %1
  ret void
}